target datalayout = "e-m:e-p270:32:32-p271:32:32-p272:64:64-i64:64-i128:128-f80:128-n8:16:32:64-S128"
target triple = "x86_64-unknown-linux-gnu"

%"class.std::basic_string_view" = type { i64, ptr }
%"struct.google::protobuf::internal::EnumEntry" = type <{ %"class.std::basic_string_view", i32, [4 x i8] }>
%class.anon = type <{ ptr, i32, [4 x i8] }>
%"struct.__gnu_cxx::__ops::_Iter_comp_val.10" = type { %class.anon }

; Function Attrs: mustprogress nounwind uwtable
define internal noundef i32 @_ZN6google8protobuf8internal12_GLOBAL__N_18GetValueEPKNS1_9EnumEntryEii(ptr noundef %enums, i32 noundef %i, i32 noundef %target) #6 {
entry:
  %retval = alloca i32, align 4
  %enums.addr = alloca ptr, align 8
  %i.addr = alloca i32, align 4
  %target.addr = alloca i32, align 4
  store ptr %enums, ptr %enums.addr, align 8
  store i32 %i, ptr %i.addr, align 4
  store i32 %target, ptr %target.addr, align 4
  %0 = load i32, ptr %i.addr, align 4
  %cmp = icmp eq i32 %0, -1
  br i1 %cmp, label %if.then, label %if.else

if.then:                                          ; preds = %entry
  %1 = load i32, ptr %target.addr, align 4
  store i32 %1, ptr %retval, align 4
  br label %return

if.else:                                          ; preds = %entry
  %2 = load ptr, ptr %enums.addr, align 8
  %3 = load i32, ptr %i.addr, align 4
  %idxprom = sext i32 %3 to i64
  %arrayidx = getelementptr inbounds %"struct.google::protobuf::internal::EnumEntry", ptr %2, i64 %idxprom
  %value = getelementptr inbounds %"struct.google::protobuf::internal::EnumEntry", ptr %arrayidx, i32 0, i32 1
  %4 = load i32, ptr %value, align 8
  store i32 %4, ptr %retval, align 4
  br label %return

return:                                           ; preds = %if.else, %if.then
  %5 = load i32, ptr %retval, align 4
  ret i32 %5
}

; Function Attrs: mustprogress uwtable
define internal noundef zeroext i1 @"_ZZN6google8protobuf8internal14LookUpEnumNameEPKNS1_9EnumEntryEPKimiENK3$_0clEii"(ptr noundef nonnull align 8 dereferenceable(12) %this, i32 noundef %a, i32 noundef %b) #4 align 2 {
entry:
  %this.addr = alloca ptr, align 8
  %a.addr = alloca i32, align 4
  %b.addr = alloca i32, align 4
  store ptr %this, ptr %this.addr, align 8
  store i32 %a, ptr %a.addr, align 4
  store i32 %b, ptr %b.addr, align 4
  %this1 = load ptr, ptr %this.addr, align 8
  %0 = getelementptr inbounds %class.anon, ptr %this1, i32 0, i32 0
  %1 = load ptr, ptr %0, align 8
  %2 = load i32, ptr %a.addr, align 4
  %3 = getelementptr inbounds %class.anon, ptr %this1, i32 0, i32 1
  %4 = load i32, ptr %3, align 8
  %call = call noundef i32 @_ZN6google8protobuf8internal12_GLOBAL__N_18GetValueEPKNS1_9EnumEntryEii(ptr noundef %1, i32 noundef %2, i32 noundef %4)
  %5 = getelementptr inbounds %class.anon, ptr %this1, i32 0, i32 0
  %6 = load ptr, ptr %5, align 8
  %7 = load i32, ptr %b.addr, align 4
  %8 = getelementptr inbounds %class.anon, ptr %this1, i32 0, i32 1
  %9 = load i32, ptr %8, align 8
  %call2 = call noundef i32 @_ZN6google8protobuf8internal12_GLOBAL__N_18GetValueEPKNS1_9EnumEntryEii(ptr noundef %6, i32 noundef %7, i32 noundef %9)
  %cmp = icmp slt i32 %call, %call2
  ret i1 %cmp
}

; Function Attrs: mustprogress nounwind uwtable
define linkonce_odr void @_ZSt9__advanceIPKilEvRT_T0_St26random_access_iterator_tag(ptr noundef nonnull align 8 dereferenceable(8) %__i, i64 noundef %__n) #6 comdat {
entry:
  %__i.addr = alloca ptr, align 8
  %__n.addr = alloca i64, align 8
  store ptr %__i, ptr %__i.addr, align 8
  store i64 %__n, ptr %__n.addr, align 8
  %0 = load i64, ptr %__n.addr, align 8
  %1 = call i1 @llvm.is.constant.i64(i64 %0)
  br i1 %1, label %land.lhs.true, label %if.else

land.lhs.true:                                    ; preds = %entry
  %2 = load i64, ptr %__n.addr, align 8
  %cmp = icmp eq i64 %2, 1
  br i1 %cmp, label %if.then, label %if.else

if.then:                                          ; preds = %land.lhs.true
  %3 = load ptr, ptr %__i.addr, align 8
  %4 = load ptr, ptr %3, align 8
  %incdec.ptr = getelementptr inbounds i32, ptr %4, i32 1
  store ptr %incdec.ptr, ptr %3, align 8
  br label %if.end6

if.else:                                          ; preds = %land.lhs.true, %entry
  %5 = load i64, ptr %__n.addr, align 8
  %6 = call i1 @llvm.is.constant.i64(i64 %5)
  br i1 %6, label %land.lhs.true1, label %if.else5

land.lhs.true1:                                   ; preds = %if.else
  %7 = load i64, ptr %__n.addr, align 8
  %cmp2 = icmp eq i64 %7, -1
  br i1 %cmp2, label %if.then3, label %if.else5

if.then3:                                         ; preds = %land.lhs.true1
  %8 = load ptr, ptr %__i.addr, align 8
  %9 = load ptr, ptr %8, align 8
  %incdec.ptr4 = getelementptr inbounds i32, ptr %9, i32 -1
  store ptr %incdec.ptr4, ptr %8, align 8
  br label %if.end

if.else5:                                         ; preds = %land.lhs.true1, %if.else
  %10 = load i64, ptr %__n.addr, align 8
  %11 = load ptr, ptr %__i.addr, align 8
  %12 = load ptr, ptr %11, align 8
  %add.ptr = getelementptr inbounds i32, ptr %12, i64 %10
  store ptr %add.ptr, ptr %11, align 8
  br label %if.end

if.end:                                           ; preds = %if.else5, %if.then3
  br label %if.end6

if.end6:                                          ; preds = %if.end, %if.then
  ret void
}

; Function Attrs: mustprogress nounwind uwtable
define linkonce_odr noundef i64 @_ZSt10__distanceIPKiENSt15iterator_traitsIT_E15difference_typeES3_S3_St26random_access_iterator_tag(ptr noundef %__first, ptr noundef %__last) #6 comdat {
entry:
  %__first.addr = alloca ptr, align 8
  %__last.addr = alloca ptr, align 8
  store ptr %__first, ptr %__first.addr, align 8
  store ptr %__last, ptr %__last.addr, align 8
  %0 = load ptr, ptr %__last.addr, align 8
  %1 = load ptr, ptr %__first.addr, align 8
  %sub.ptr.lhs.cast = ptrtoint ptr %0 to i64
  %sub.ptr.rhs.cast = ptrtoint ptr %1 to i64
  %sub.ptr.sub = sub i64 %sub.ptr.lhs.cast, %sub.ptr.rhs.cast
  %sub.ptr.div = sdiv exact i64 %sub.ptr.sub, 4
  ret i64 %sub.ptr.div
}

; Function Attrs: mustprogress nounwind uwtable
define linkonce_odr void @_ZSt19__iterator_categoryIPKiENSt15iterator_traitsIT_E17iterator_categoryERKS3_(ptr noundef nonnull align 8 dereferenceable(8) %0) #6 comdat {
entry:
  %.addr = alloca ptr, align 8
  store ptr %0, ptr %.addr, align 8
  ret void
}

; Function Attrs: mustprogress uwtable
define internal noundef zeroext i1 @"_ZN9__gnu_cxx5__ops14_Iter_comp_valIZN6google8protobuf8internal14LookUpEnumNameEPKNS4_9EnumEntryEPKimiE3$_0EclIS9_S8_EEbT_RT0_"(ptr noundef nonnull align 8 dereferenceable(16) %this, ptr noundef %__it, ptr noundef nonnull align 4 dereferenceable(4) %__val) #4 align 2 {
entry:
  %this.addr = alloca ptr, align 8
  %__it.addr = alloca ptr, align 8
  %__val.addr = alloca ptr, align 8
  store ptr %this, ptr %this.addr, align 8
  store ptr %__it, ptr %__it.addr, align 8
  store ptr %__val, ptr %__val.addr, align 8
  %this1 = load ptr, ptr %this.addr, align 8
  %_M_comp = getelementptr inbounds %"struct.__gnu_cxx::__ops::_Iter_comp_val.10", ptr %this1, i32 0, i32 0
  %0 = load ptr, ptr %__it.addr, align 8
  %1 = load i32, ptr %0, align 4
  %2 = load ptr, ptr %__val.addr, align 8
  %3 = load i32, ptr %2, align 4
  %call = call noundef zeroext i1 @"_ZZN6google8protobuf8internal14LookUpEnumNameEPKNS1_9EnumEntryEPKimiENK3$_0clEii"(ptr noundef nonnull align 8 dereferenceable(12) %_M_comp, i32 noundef %1, i32 noundef %3)
  ret i1 %call
}

; Function Attrs: mustprogress uwtable
define linkonce_odr void @_ZSt7advanceIPKilEvRT_T0_(ptr noundef nonnull align 8 dereferenceable(8) %__i, i64 noundef %__n) #4 comdat {
entry:
  %__i.addr = alloca ptr, align 8
  %__n.addr = alloca i64, align 8
  %__d = alloca i64, align 8
  store ptr %__i, ptr %__i.addr, align 8
  store i64 %__n, ptr %__n.addr, align 8
  %0 = load i64, ptr %__n.addr, align 8
  store i64 %0, ptr %__d, align 8
  %1 = load ptr, ptr %__i.addr, align 8
  %2 = load i64, ptr %__d, align 8
  %3 = load ptr, ptr %__i.addr, align 8
  call void @_ZSt19__iterator_categoryIPKiENSt15iterator_traitsIT_E17iterator_categoryERKS3_(ptr noundef nonnull align 8 dereferenceable(8) %3)
  call void @_ZSt9__advanceIPKilEvRT_T0_St26random_access_iterator_tag(ptr noundef nonnull align 8 dereferenceable(8) %1, i64 noundef %2)
  ret void
}

; Function Attrs: mustprogress uwtable
define linkonce_odr noundef i64 @_ZSt8distanceIPKiENSt15iterator_traitsIT_E15difference_typeES3_S3_(ptr noundef %__first, ptr noundef %__last) #4 comdat {
entry:
  %__first.addr = alloca ptr, align 8
  %__last.addr = alloca ptr, align 8
  store ptr %__first, ptr %__first.addr, align 8
  store ptr %__last, ptr %__last.addr, align 8
  %0 = load ptr, ptr %__first.addr, align 8
  %1 = load ptr, ptr %__last.addr, align 8
  call void @_ZSt19__iterator_categoryIPKiENSt15iterator_traitsIT_E17iterator_categoryERKS3_(ptr noundef nonnull align 8 dereferenceable(8) %__first.addr)
  %call = call noundef i64 @_ZSt10__distanceIPKiENSt15iterator_traitsIT_E15difference_typeES3_S3_St26random_access_iterator_tag(ptr noundef %0, ptr noundef %1)
  ret i64 %call
}

; Function Attrs: mustprogress nounwind uwtable
define internal void @"_ZN9__gnu_cxx5__ops14_Iter_comp_valIZN6google8protobuf8internal14LookUpEnumNameEPKNS4_9EnumEntryEPKimiE3$_0EC2ESA_"(ptr noundef nonnull align 8 dereferenceable(16) %this, ptr %__comp.coerce0, i32 %__comp.coerce1) unnamed_addr #6 align 2 {
entry:
  %__comp = alloca %class.anon, align 8
  %this.addr = alloca ptr, align 8
  %0 = getelementptr inbounds { ptr, i32 }, ptr %__comp, i32 0, i32 0
  store ptr %__comp.coerce0, ptr %0, align 8
  %1 = getelementptr inbounds { ptr, i32 }, ptr %__comp, i32 0, i32 1
  store i32 %__comp.coerce1, ptr %1, align 8
  store ptr %this, ptr %this.addr, align 8
  %this1 = load ptr, ptr %this.addr, align 8
  %_M_comp = getelementptr inbounds %"struct.__gnu_cxx::__ops::_Iter_comp_val.10", ptr %this1, i32 0, i32 0
  call void @llvm.memcpy.p0.p0.i64(ptr align 8 %_M_comp, ptr align 8 %__comp, i64 16, i1 false)
  ret void
}

; Function Attrs: mustprogress uwtable
define internal noundef ptr @"_ZSt13__lower_boundIPKiiN9__gnu_cxx5__ops14_Iter_comp_valIZN6google8protobuf8internal14LookUpEnumNameEPKNS7_9EnumEntryES1_miE3$_0EEET_SD_SD_RKT0_T1_"(ptr noundef %__first, ptr noundef %__last, ptr noundef nonnull align 4 dereferenceable(4) %__val, ptr %__comp.coerce0, i32 %__comp.coerce1) #4 {
entry:
  %__comp = alloca %"struct.__gnu_cxx::__ops::_Iter_comp_val.10", align 8
  %__first.addr = alloca ptr, align 8
  %__last.addr = alloca ptr, align 8
  %__val.addr = alloca ptr, align 8
  %__len = alloca i64, align 8
  %__half = alloca i64, align 8
  %__middle = alloca ptr, align 8
  %0 = getelementptr inbounds { ptr, i32 }, ptr %__comp, i32 0, i32 0
  store ptr %__comp.coerce0, ptr %0, align 8
  %1 = getelementptr inbounds { ptr, i32 }, ptr %__comp, i32 0, i32 1
  store i32 %__comp.coerce1, ptr %1, align 8
  store ptr %__first, ptr %__first.addr, align 8
  store ptr %__last, ptr %__last.addr, align 8
  store ptr %__val, ptr %__val.addr, align 8
  %2 = load ptr, ptr %__first.addr, align 8
  %3 = load ptr, ptr %__last.addr, align 8
  %call = call noundef i64 @_ZSt8distanceIPKiENSt15iterator_traitsIT_E15difference_typeES3_S3_(ptr noundef %2, ptr noundef %3)
  store i64 %call, ptr %__len, align 8
  br label %while.cond

while.cond:                                       ; preds = %if.end, %entry
  %4 = load i64, ptr %__len, align 8
  %cmp = icmp sgt i64 %4, 0
  br i1 %cmp, label %while.body, label %while.end

while.body:                                       ; preds = %while.cond
  %5 = load i64, ptr %__len, align 8
  %shr = ashr i64 %5, 1
  store i64 %shr, ptr %__half, align 8
  %6 = load ptr, ptr %__first.addr, align 8
  store ptr %6, ptr %__middle, align 8
  %7 = load i64, ptr %__half, align 8
  call void @_ZSt7advanceIPKilEvRT_T0_(ptr noundef nonnull align 8 dereferenceable(8) %__middle, i64 noundef %7)
  %8 = load ptr, ptr %__middle, align 8
  %9 = load ptr, ptr %__val.addr, align 8
  %call1 = call noundef zeroext i1 @"_ZN9__gnu_cxx5__ops14_Iter_comp_valIZN6google8protobuf8internal14LookUpEnumNameEPKNS4_9EnumEntryEPKimiE3$_0EclIS9_S8_EEbT_RT0_"(ptr noundef nonnull align 8 dereferenceable(16) %__comp, ptr noundef %8, ptr noundef nonnull align 4 dereferenceable(4) %9)
  br i1 %call1, label %if.then, label %if.else

if.then:                                          ; preds = %while.body
  %10 = load ptr, ptr %__middle, align 8
  store ptr %10, ptr %__first.addr, align 8
  %11 = load ptr, ptr %__first.addr, align 8
  %incdec.ptr = getelementptr inbounds i32, ptr %11, i32 1
  store ptr %incdec.ptr, ptr %__first.addr, align 8
  %12 = load i64, ptr %__len, align 8
  %13 = load i64, ptr %__half, align 8
  %sub = sub nsw i64 %12, %13
  %sub2 = sub nsw i64 %sub, 1
  store i64 %sub2, ptr %__len, align 8
  br label %if.end

if.else:                                          ; preds = %while.body
  %14 = load i64, ptr %__half, align 8
  store i64 %14, ptr %__len, align 8
  br label %if.end

if.end:                                           ; preds = %if.else, %if.then
  br label %while.cond, !llvm.loop !14

while.end:                                        ; preds = %while.cond
  %15 = load ptr, ptr %__first.addr, align 8
  ret ptr %15
}

; Function Attrs: mustprogress uwtable
define internal { ptr, i32 } @"_ZN9__gnu_cxx5__ops15__iter_comp_valIZN6google8protobuf8internal14LookUpEnumNameEPKNS4_9EnumEntryEPKimiE3$_0EENS0_14_Iter_comp_valIT_EESC_"(ptr %__comp.coerce0, i32 %__comp.coerce1) #4 {
entry:
  %retval = alloca %"struct.__gnu_cxx::__ops::_Iter_comp_val.10", align 8
  %__comp = alloca %class.anon, align 8
  %agg.tmp = alloca %class.anon, align 8
  %0 = getelementptr inbounds { ptr, i32 }, ptr %__comp, i32 0, i32 0
  store ptr %__comp.coerce0, ptr %0, align 8
  %1 = getelementptr inbounds { ptr, i32 }, ptr %__comp, i32 0, i32 1
  store i32 %__comp.coerce1, ptr %1, align 8
  call void @llvm.memcpy.p0.p0.i64(ptr align 8 %agg.tmp, ptr align 8 %__comp, i64 16, i1 false)
  %2 = getelementptr inbounds { ptr, i32 }, ptr %agg.tmp, i32 0, i32 0
  %3 = load ptr, ptr %2, align 8
  %4 = getelementptr inbounds { ptr, i32 }, ptr %agg.tmp, i32 0, i32 1
  %5 = load i32, ptr %4, align 8
  call void @"_ZN9__gnu_cxx5__ops14_Iter_comp_valIZN6google8protobuf8internal14LookUpEnumNameEPKNS4_9EnumEntryEPKimiE3$_0EC2ESA_"(ptr noundef nonnull align 8 dereferenceable(16) %retval, ptr %3, i32 %5)
  %coerce.dive = getelementptr inbounds %"struct.__gnu_cxx::__ops::_Iter_comp_val.10", ptr %retval, i32 0, i32 0
  %6 = load { ptr, i32 }, ptr %coerce.dive, align 8
  ret { ptr, i32 } %6
}

; Function Attrs: mustprogress uwtable
define internal noundef ptr @"_ZSt11lower_boundIPKiiZN6google8protobuf8internal14LookUpEnumNameEPKNS4_9EnumEntryES1_miE3$_0ET_S9_S9_RKT0_T1_"(ptr noundef %__first, ptr noundef %__last, ptr noundef nonnull align 4 dereferenceable(4) %__val, ptr %__comp.coerce0, i32 %__comp.coerce1) #4 {
entry:
  %__comp = alloca %class.anon, align 8
  %__first.addr = alloca ptr, align 8
  %__last.addr = alloca ptr, align 8
  %__val.addr = alloca ptr, align 8
  %agg.tmp = alloca %"struct.__gnu_cxx::__ops::_Iter_comp_val.10", align 8
  %agg.tmp1 = alloca %class.anon, align 8
  %0 = getelementptr inbounds { ptr, i32 }, ptr %__comp, i32 0, i32 0
  store ptr %__comp.coerce0, ptr %0, align 8
  %1 = getelementptr inbounds { ptr, i32 }, ptr %__comp, i32 0, i32 1
  store i32 %__comp.coerce1, ptr %1, align 8
  store ptr %__first, ptr %__first.addr, align 8
  store ptr %__last, ptr %__last.addr, align 8
  store ptr %__val, ptr %__val.addr, align 8
  %2 = load ptr, ptr %__first.addr, align 8
  %3 = load ptr, ptr %__last.addr, align 8
  %4 = load ptr, ptr %__val.addr, align 8
  call void @llvm.memcpy.p0.p0.i64(ptr align 8 %agg.tmp1, ptr align 8 %__comp, i64 16, i1 false)
  %5 = getelementptr inbounds { ptr, i32 }, ptr %agg.tmp1, i32 0, i32 0
  %6 = load ptr, ptr %5, align 8
  %7 = getelementptr inbounds { ptr, i32 }, ptr %agg.tmp1, i32 0, i32 1
  %8 = load i32, ptr %7, align 8
  %call = call { ptr, i32 } @"_ZN9__gnu_cxx5__ops15__iter_comp_valIZN6google8protobuf8internal14LookUpEnumNameEPKNS4_9EnumEntryEPKimiE3$_0EENS0_14_Iter_comp_valIT_EESC_"(ptr %6, i32 %8)
  %coerce.dive = getelementptr inbounds %"struct.__gnu_cxx::__ops::_Iter_comp_val.10", ptr %agg.tmp, i32 0, i32 0
  %9 = getelementptr inbounds { ptr, i32 }, ptr %coerce.dive, i32 0, i32 0
  %10 = extractvalue { ptr, i32 } %call, 0
  store ptr %10, ptr %9, align 8
  %11 = getelementptr inbounds { ptr, i32 }, ptr %coerce.dive, i32 0, i32 1
  %12 = extractvalue { ptr, i32 } %call, 1
  store i32 %12, ptr %11, align 8
  %13 = getelementptr inbounds { ptr, i32 }, ptr %agg.tmp, i32 0, i32 0
  %14 = load ptr, ptr %13, align 8
  %15 = getelementptr inbounds { ptr, i32 }, ptr %agg.tmp, i32 0, i32 1
  %16 = load i32, ptr %15, align 8
  %call2 = call noundef ptr @"_ZSt13__lower_boundIPKiiN9__gnu_cxx5__ops14_Iter_comp_valIZN6google8protobuf8internal14LookUpEnumNameEPKNS7_9EnumEntryES1_miE3$_0EEET_SD_SD_RKT0_T1_"(ptr noundef %2, ptr noundef %3, ptr noundef nonnull align 4 dereferenceable(4) %4, ptr %14, i32 %16)
  ret ptr %call2
}

; Function Attrs: mustprogress uwtable
define noundef i32 @_ZN6google8protobuf8internal14LookUpEnumNameEPKNS1_9EnumEntryEPKimi(ptr noundef %enums, ptr noundef %sorted_indices, i64 noundef %size, i32 noundef %value) #4 {
entry:
  %retval = alloca i32, align 4
  %enums.addr = alloca ptr, align 8
  %sorted_indices.addr = alloca ptr, align 8
  %size.addr = alloca i64, align 8
  %value.addr = alloca i32, align 4
  %comparator = alloca %class.anon, align 8
  %it = alloca ptr, align 8
  %ref.tmp = alloca i32, align 4
  %agg.tmp = alloca %class.anon, align 8
  store ptr %enums, ptr %enums.addr, align 8
  store ptr %sorted_indices, ptr %sorted_indices.addr, align 8
  store i64 %size, ptr %size.addr, align 8
  store i32 %value, ptr %value.addr, align 4
  %0 = getelementptr inbounds %class.anon, ptr %comparator, i32 0, i32 0
  %1 = load ptr, ptr %enums.addr, align 8
  store ptr %1, ptr %0, align 8
  %2 = getelementptr inbounds %class.anon, ptr %comparator, i32 0, i32 1
  %3 = load i32, ptr %value.addr, align 4
  store i32 %3, ptr %2, align 8
  %4 = load ptr, ptr %sorted_indices.addr, align 8
  %5 = load ptr, ptr %sorted_indices.addr, align 8
  %6 = load i64, ptr %size.addr, align 8
  %add.ptr = getelementptr inbounds i32, ptr %5, i64 %6
  store i32 -1, ptr %ref.tmp, align 4
  call void @llvm.memcpy.p0.p0.i64(ptr align 8 %agg.tmp, ptr align 8 %comparator, i64 16, i1 false)
  %7 = getelementptr inbounds { ptr, i32 }, ptr %agg.tmp, i32 0, i32 0
  %8 = load ptr, ptr %7, align 8
  %9 = getelementptr inbounds { ptr, i32 }, ptr %agg.tmp, i32 0, i32 1
  %10 = load i32, ptr %9, align 8
  %call = call noundef ptr @"_ZSt11lower_boundIPKiiZN6google8protobuf8internal14LookUpEnumNameEPKNS4_9EnumEntryES1_miE3$_0ET_S9_S9_RKT0_T1_"(ptr noundef %4, ptr noundef %add.ptr, ptr noundef nonnull align 4 dereferenceable(4) %ref.tmp, ptr %8, i32 %10)
  store ptr %call, ptr %it, align 8
  %11 = load ptr, ptr %it, align 8
  %12 = load ptr, ptr %sorted_indices.addr, align 8
  %13 = load i64, ptr %size.addr, align 8
  %add.ptr1 = getelementptr inbounds i32, ptr %12, i64 %13
  %cmp = icmp ne ptr %11, %add.ptr1
  br i1 %cmp, label %land.lhs.true, label %if.end

land.lhs.true:                                    ; preds = %entry
  %14 = load ptr, ptr %enums.addr, align 8
  %15 = load ptr, ptr %it, align 8
  %16 = load i32, ptr %15, align 4
  %idxprom = sext i32 %16 to i64
  %arrayidx = getelementptr inbounds %"struct.google::protobuf::internal::EnumEntry", ptr %14, i64 %idxprom
  %value2 = getelementptr inbounds %"struct.google::protobuf::internal::EnumEntry", ptr %arrayidx, i32 0, i32 1
  %17 = load i32, ptr %value2, align 8
  %18 = load i32, ptr %value.addr, align 4
  %cmp3 = icmp eq i32 %17, %18
  br i1 %cmp3, label %if.then, label %if.end

if.then:                                          ; preds = %land.lhs.true
  %19 = load ptr, ptr %it, align 8
  %20 = load ptr, ptr %sorted_indices.addr, align 8
  %sub.ptr.lhs.cast = ptrtoint ptr %19 to i64
  %sub.ptr.rhs.cast = ptrtoint ptr %20 to i64
  %sub.ptr.sub = sub i64 %sub.ptr.lhs.cast, %sub.ptr.rhs.cast
  %sub.ptr.div = sdiv exact i64 %sub.ptr.sub, 4
  %conv = trunc i64 %sub.ptr.div to i32
  store i32 %conv, ptr %retval, align 4
  br label %return

if.end:                                           ; preds = %land.lhs.true, %entry
  store i32 -1, ptr %retval, align 4
  br label %return

return:                                           ; preds = %if.end, %if.then
  %21 = load i32, ptr %retval, align 4
  ret i32 %21
}